target datalayout = "e-m:e-p270:32:32-p271:32:32-p272:64:64-i64:64-i128:128-f80:128-n8:16:32:64-S128"
target triple = "x86_64-pc-linux-gnu"

%struct.cli_clamav_intel = type { ptr, ptr, ptr, i32, i32, i32, i32, i64, ptr, %union.pthread_mutex_t }
%union.pthread_mutex_t = type { %struct.__pthread_mutex_s }
%struct.__pthread_mutex_s = type { i32, i32, i32, i32, i32, i16, i16, %struct.__pthread_internal_list }
%struct.__pthread_internal_list = type { ptr, ptr }
%struct.cl_engine = type { i32, i32, i32, [2 x i32], i32, i32, i32, ptr, i32, i64, i32, i32, i64, i64, i32, i32, i32, i32, ptr, ptr, ptr, ptr, ptr, ptr, ptr, ptr, ptr, ptr, ptr, ptr, ptr, ptr, ptr, ptr, ptr, ptr, ptr, i64, ptr, %struct.crtmgr, ptr, ptr, ptr, ptr, ptr, ptr, ptr, ptr, ptr, ptr, ptr, ptr, ptr, ptr, ptr, ptr, ptr, %struct.cli_all_bc, [7 x ptr], [7 x i32], i32, i32, i32, i32, i64, i64, i64, i64, i64, ptr, ptr, ptr, ptr, ptr, ptr, ptr, ptr, ptr, i32, i32, i32, i64, i64, i64, ptr }
%struct.crtmgr = type { ptr, i32 }
%struct.cli_all_bc = type { ptr, i32, ptr, %struct.cli_environment, i32 }
%struct.cli_environment = type { i32, i32, i32, i32, i32, i32, i32, [65 x i8], [65 x i8], [65 x i8], [65 x i8], [65 x i8], [65 x i8], [65 x i8], i8, i8, i8, i8, i8, i8, i8, i8, i8 }
%struct.cli_dconf = type { i32, i32, i32, i32, i32, i32, i32, i32, i32, i32, i32 }
%struct.cli_flagged_sample = type { ptr, [16 x i8], i32, i32, ptr, ptr, ptr }
%struct.cli_stats_sections = type { i64, ptr }

@.str.5 = private unnamed_addr constant [15 x i8] c"stats - start\0A\00", align 1
@.str.6 = private unnamed_addr constant [57 x i8] c"clamav_stats_submit: locking mutex failed (err: %d): %s\0A\00", align 1
@.str.7 = private unnamed_addr constant [59 x i8] c"clamav_stats_submit: unlocking mutex failed (err: %d): %s\0A\00", align 1
@.str.8 = private unnamed_addr constant [17 x i8] c"intel.clamav.net\00", align 1
@.str.9 = private unnamed_addr constant [3 x i8] c"80\00", align 1
@.str.10 = private unnamed_addr constant [4 x i8] c"PUT\00", align 1
@.str.11 = private unnamed_addr constant [23 x i8] c"/clamav/1/submit/stats\00", align 1
@.str.12 = private unnamed_addr constant [13 x i8] c"stats - end\0A\00", align 1

; Function Attrs: nounwind uwtable
define void @free_sample(ptr noundef %0) #0 {
  %2 = alloca ptr, align 8
  %3 = alloca i64, align 8
  store ptr %0, ptr %2, align 8
  %4 = load ptr, ptr %2, align 8
  %5 = getelementptr inbounds %struct.cli_flagged_sample, ptr %4, i32 0, i32 0
  %6 = load ptr, ptr %5, align 8
  %7 = icmp ne ptr %6, null
  br i1 %7, label %8, label %31

8:                                                ; preds = %1
  store i64 0, ptr %3, align 8
  br label %9

9:                                                ; preds = %24, %8
  %10 = load ptr, ptr %2, align 8
  %11 = getelementptr inbounds %struct.cli_flagged_sample, ptr %10, i32 0, i32 0
  %12 = load ptr, ptr %11, align 8
  %13 = load i64, ptr %3, align 8
  %14 = getelementptr inbounds ptr, ptr %12, i64 %13
  %15 = load ptr, ptr %14, align 8
  %16 = icmp ne ptr %15, null
  br i1 %16, label %17, label %27

17:                                               ; preds = %9
  %18 = load ptr, ptr %2, align 8
  %19 = getelementptr inbounds %struct.cli_flagged_sample, ptr %18, i32 0, i32 0
  %20 = load ptr, ptr %19, align 8
  %21 = load i64, ptr %3, align 8
  %22 = getelementptr inbounds ptr, ptr %20, i64 %21
  %23 = load ptr, ptr %22, align 8
  call void @free(ptr noundef %23) #7
  br label %24

24:                                               ; preds = %17
  %25 = load i64, ptr %3, align 8
  %26 = add i64 %25, 1
  store i64 %26, ptr %3, align 8
  br label %9

27:                                               ; preds = %9
  %28 = load ptr, ptr %2, align 8
  %29 = getelementptr inbounds %struct.cli_flagged_sample, ptr %28, i32 0, i32 0
  %30 = load ptr, ptr %29, align 8
  call void @free(ptr noundef %30) #7
  br label %31

31:                                               ; preds = %27, %1
  %32 = load ptr, ptr %2, align 8
  %33 = getelementptr inbounds %struct.cli_flagged_sample, ptr %32, i32 0, i32 4
  %34 = load ptr, ptr %33, align 8
  %35 = icmp ne ptr %34, null
  br i1 %35, label %36, label %52

36:                                               ; preds = %31
  %37 = load ptr, ptr %2, align 8
  %38 = getelementptr inbounds %struct.cli_flagged_sample, ptr %37, i32 0, i32 4
  %39 = load ptr, ptr %38, align 8
  %40 = getelementptr inbounds %struct.cli_stats_sections, ptr %39, i32 0, i32 0
  %41 = load i64, ptr %40, align 8
  %42 = icmp ne i64 %41, 0
  br i1 %42, label %43, label %52

43:                                               ; preds = %36
  %44 = load ptr, ptr %2, align 8
  %45 = getelementptr inbounds %struct.cli_flagged_sample, ptr %44, i32 0, i32 4
  %46 = load ptr, ptr %45, align 8
  %47 = getelementptr inbounds %struct.cli_stats_sections, ptr %46, i32 0, i32 1
  %48 = load ptr, ptr %47, align 8
  call void @free(ptr noundef %48) #7
  %49 = load ptr, ptr %2, align 8
  %50 = getelementptr inbounds %struct.cli_flagged_sample, ptr %49, i32 0, i32 4
  %51 = load ptr, ptr %50, align 8
  call void @free(ptr noundef %51) #7
  br label %52

52:                                               ; preds = %43, %36, %31
  %53 = load ptr, ptr %2, align 8
  call void @free(ptr noundef %53) #7
  ret void
}

; Function Attrs: nounwind uwtable
define void @clamav_stats_submit(ptr noundef %0, ptr noundef %1) #0 {
  %3 = alloca ptr, align 8
  %4 = alloca ptr, align 8
  %5 = alloca ptr, align 8
  %6 = alloca ptr, align 8
  %7 = alloca %struct.cli_clamav_intel, align 8
  %8 = alloca ptr, align 8
  %9 = alloca ptr, align 8
  %10 = alloca i32, align 4
  store ptr %0, ptr %3, align 8
  store ptr %1, ptr %4, align 8
  %11 = load ptr, ptr %4, align 8
  store ptr %11, ptr %6, align 8
  %12 = load ptr, ptr %6, align 8
  %13 = icmp ne ptr %12, null
  br i1 %13, label %14, label %17

14:                                               ; preds = %2
  %15 = load ptr, ptr %3, align 8
  %16 = icmp ne ptr %15, null
  br i1 %16, label %18, label %17

17:                                               ; preds = %14, %2
  br label %128

18:                                               ; preds = %14
  %19 = load ptr, ptr %3, align 8
  %20 = getelementptr inbounds %struct.cl_engine, ptr %19, i32 0, i32 27
  %21 = load ptr, ptr %20, align 8
  %22 = getelementptr inbounds %struct.cli_dconf, ptr %21, i32 0, i32 9
  %23 = load i32, ptr %22, align 4
  %24 = and i32 %23, 1
  %25 = icmp ne i32 %24, 0
  br i1 %25, label %26, label %27

26:                                               ; preds = %18
  br label %128

27:                                               ; preds = %18
  %28 = load ptr, ptr %3, align 8
  %29 = getelementptr inbounds %struct.cl_engine, ptr %28, i32 0, i32 77
  %30 = load ptr, ptr %29, align 8
  %31 = icmp ne ptr %30, null
  br i1 %31, label %44, label %32

32:                                               ; preds = %27
  %33 = load ptr, ptr %3, align 8
  %34 = getelementptr inbounds %struct.cl_engine, ptr %33, i32 0, i32 74
  %35 = load ptr, ptr %34, align 8
  %36 = icmp ne ptr %35, null
  br i1 %36, label %37, label %43

37:                                               ; preds = %32
  %38 = load ptr, ptr %3, align 8
  %39 = getelementptr inbounds %struct.cl_engine, ptr %38, i32 0, i32 74
  %40 = load ptr, ptr %39, align 8
  %41 = load ptr, ptr %3, align 8
  %42 = load ptr, ptr %4, align 8
  call void %40(ptr noundef %41, ptr noundef %42)
  br label %43

43:                                               ; preds = %37, %32
  br label %128

44:                                               ; preds = %27
  call void (ptr, ...) @cli_dbgmsg(ptr noundef @.str.5)
  %45 = load ptr, ptr %6, align 8
  %46 = getelementptr inbounds %struct.cli_clamav_intel, ptr %45, i32 0, i32 9
  %47 = call i32 @pthread_mutex_lock(ptr noundef %46) #7
  store i32 %47, ptr %10, align 4
  %48 = load i32, ptr %10, align 4
  %49 = icmp ne i32 %48, 0
  br i1 %49, label %50, label %76

50:                                               ; preds = %44
  %51 = load i32, ptr %10, align 4
  %52 = load i32, ptr %10, align 4
  %53 = call ptr @strerror(i32 noundef %52) #7
  call void (ptr, ...) @cli_warnmsg(ptr noundef @.str.6, i32 noundef %51, ptr noundef %53)
  %54 = load ptr, ptr %6, align 8
  %55 = getelementptr inbounds %struct.cli_clamav_intel, ptr %54, i32 0, i32 8
  %56 = load ptr, ptr %55, align 8
  %57 = icmp ne ptr %56, null
  br i1 %57, label %58, label %75

58:                                               ; preds = %50
  %59 = load ptr, ptr %6, align 8
  %60 = getelementptr inbounds %struct.cli_clamav_intel, ptr %59, i32 0, i32 8
  %61 = load ptr, ptr %60, align 8
  %62 = getelementptr inbounds %struct.cl_engine, ptr %61, i32 0, i32 74
  %63 = load ptr, ptr %62, align 8
  %64 = icmp ne ptr %63, null
  br i1 %64, label %65, label %75

65:                                               ; preds = %58
  %66 = load ptr, ptr %6, align 8
  %67 = getelementptr inbounds %struct.cli_clamav_intel, ptr %66, i32 0, i32 8
  %68 = load ptr, ptr %67, align 8
  %69 = getelementptr inbounds %struct.cl_engine, ptr %68, i32 0, i32 74
  %70 = load ptr, ptr %69, align 8
  %71 = load ptr, ptr %6, align 8
  %72 = getelementptr inbounds %struct.cli_clamav_intel, ptr %71, i32 0, i32 8
  %73 = load ptr, ptr %72, align 8
  %74 = load ptr, ptr %4, align 8
  call void %70(ptr noundef %73, ptr noundef %74)
  br label %75

75:                                               ; preds = %65, %58, %50
  br label %128

76:                                               ; preds = %44
  %77 = load ptr, ptr %6, align 8
  call void @llvm.memcpy.p0.p0.i64(ptr align 8 %7, ptr align 8 %77, i64 96, i1 false)
  %78 = load ptr, ptr %6, align 8
  %79 = getelementptr inbounds %struct.cli_clamav_intel, ptr %78, i32 0, i32 2
  store ptr null, ptr %79, align 8
  %80 = load ptr, ptr %6, align 8
  %81 = getelementptr inbounds %struct.cli_clamav_intel, ptr %80, i32 0, i32 3
  store i32 0, ptr %81, align 8
  %82 = load ptr, ptr %3, align 8
  %83 = call ptr @export_stats_to_json(ptr noundef %82, ptr noundef %7)
  store ptr %83, ptr %5, align 8
  %84 = load ptr, ptr %6, align 8
  %85 = getelementptr inbounds %struct.cli_clamav_intel, ptr %84, i32 0, i32 9
  %86 = call i32 @pthread_mutex_unlock(ptr noundef %85) #7
  store i32 %86, ptr %10, align 4
  %87 = load i32, ptr %10, align 4
  %88 = icmp ne i32 %87, 0
  br i1 %88, label %89, label %93

89:                                               ; preds = %76
  %90 = load i32, ptr %10, align 4
  %91 = load i32, ptr %10, align 4
  %92 = call ptr @strerror(i32 noundef %91) #7
  call void (ptr, ...) @cli_warnmsg(ptr noundef @.str.7, i32 noundef %90, ptr noundef %92)
  br label %93

93:                                               ; preds = %89, %76
  %94 = getelementptr inbounds %struct.cli_clamav_intel, ptr %7, i32 0, i32 2
  %95 = load ptr, ptr %94, align 8
  store ptr %95, ptr %8, align 8
  br label %96

96:                                               ; preds = %104, %93
  %97 = load ptr, ptr %8, align 8
  %98 = icmp ne ptr %97, null
  br i1 %98, label %99, label %106

99:                                               ; preds = %96
  %100 = load ptr, ptr %8, align 8
  %101 = getelementptr inbounds %struct.cli_flagged_sample, ptr %100, i32 0, i32 6
  %102 = load ptr, ptr %101, align 8
  store ptr %102, ptr %9, align 8
  %103 = load ptr, ptr %8, align 8
  call void @free_sample(ptr noundef %103)
  br label %104

104:                                              ; preds = %99
  %105 = load ptr, ptr %9, align 8
  store ptr %105, ptr %8, align 8
  br label %96

106:                                              ; preds = %96
  %107 = load ptr, ptr %5, align 8
  %108 = icmp ne ptr %107, null
  br i1 %108, label %109, label %114

109:                                              ; preds = %106
  %110 = load ptr, ptr %5, align 8
  %111 = getelementptr inbounds %struct.cli_clamav_intel, ptr %7, i32 0, i32 6
  %112 = load i32, ptr %111, align 4
  call void @submit_post(ptr noundef @.str.8, ptr noundef @.str.9, ptr noundef @.str.10, ptr noundef @.str.11, ptr noundef %110, i32 noundef %112)
  %113 = load ptr, ptr %5, align 8
  call void @free(ptr noundef %113) #7
  br label %114

114:                                              ; preds = %109, %106
  %115 = getelementptr inbounds %struct.cli_clamav_intel, ptr %7, i32 0, i32 0
  %116 = load ptr, ptr %115, align 8
  %117 = icmp ne ptr %116, null
  br i1 %117, label %118, label %127

118:                                              ; preds = %114
  %119 = load ptr, ptr %6, align 8
  %120 = getelementptr inbounds %struct.cli_clamav_intel, ptr %119, i32 0, i32 0
  %121 = load ptr, ptr %120, align 8
  %122 = icmp ne ptr %121, null
  br i1 %122, label %127, label %123

123:                                              ; preds = %118
  %124 = getelementptr inbounds %struct.cli_clamav_intel, ptr %7, i32 0, i32 0
  %125 = load ptr, ptr %124, align 8
  call void @free(ptr noundef %125) #7
  %126 = getelementptr inbounds %struct.cli_clamav_intel, ptr %7, i32 0, i32 0
  store ptr null, ptr %126, align 8
  br label %127

127:                                              ; preds = %123, %118, %114
  call void (ptr, ...) @cli_dbgmsg(ptr noundef @.str.12)
  br label %128

128:                                              ; preds = %127, %75, %43, %26, %17
  ret void
}