; Function Attrs: nounwind uwtable
define void @clamav_stats_submit(ptr noundef %0, ptr noundef %1) #0 {
  %3 = alloca %struct.cli_clamav_intel, align 8
  %4 = icmp ne ptr %1, null
  %5 = icmp ne ptr %0, null
  %or.cond = and i1 %5, %4
  br i1 %or.cond, label %6, label %67

6:                                                ; preds = %2
  %7 = getelementptr inbounds nuw i8, ptr %0, i64 168
  %8 = load ptr, ptr %7, align 8
  %9 = getelementptr inbounds nuw i8, ptr %8, i64 36
  %10 = load i32, ptr %9, align 4
  %11 = and i32 %10, 1
  %.not = icmp eq i32 %11, 0
  br i1 %.not, label %12, label %67

12:                                               ; preds = %6
  %13 = getelementptr inbounds nuw i8, ptr %0, i64 1144
  %14 = load ptr, ptr %13, align 8
  %.not43 = icmp eq ptr %14, null
  br i1 %.not43, label %15, label %19

15:                                               ; preds = %12
  %16 = getelementptr inbounds nuw i8, ptr %0, i64 1120
  %17 = load ptr, ptr %16, align 8
  %.not44 = icmp eq ptr %17, null
  br i1 %.not44, label %67, label %18

18:                                               ; preds = %15
  tail call void %17(ptr noundef nonnull %0, ptr noundef nonnull %1) #13
  br label %67

19:                                               ; preds = %12
  tail call void (ptr, ...) @cli_dbgmsg(ptr noundef nonnull @.str.5) #13
  %20 = getelementptr inbounds nuw i8, ptr %1, i64 56
  %21 = tail call i32 @pthread_mutex_lock(ptr noundef nonnull %20) #13
  %.not45 = icmp eq i32 %21, 0
  br i1 %.not45, label %30, label %22

22:                                               ; preds = %19
  %23 = tail call ptr @strerror(i32 noundef %21) #13
  tail call void (ptr, ...) @cli_warnmsg(ptr noundef nonnull @.str.6, i32 noundef %21, ptr noundef %23) #13
  %24 = getelementptr inbounds nuw i8, ptr %1, i64 48
  %25 = load ptr, ptr %24, align 8
  %.not51 = icmp eq ptr %25, null
  br i1 %.not51, label %67, label %26

26:                                               ; preds = %22
  %27 = getelementptr inbounds nuw i8, ptr %25, i64 1120
  %28 = load ptr, ptr %27, align 8
  %.not52 = icmp eq ptr %28, null
  br i1 %.not52, label %67, label %29

29:                                               ; preds = %26
  tail call void %28(ptr noundef nonnull %25, ptr noundef nonnull %1) #13
  br label %67

30:                                               ; preds = %19
  call void @llvm.memcpy.p0.p0.i64(ptr noundef nonnull align 8 dereferenceable(96) %3, ptr noundef nonnull align 8 dereferenceable(96) %1, i64 96, i1 false)
  %31 = getelementptr inbounds nuw i8, ptr %1, i64 16
  store ptr null, ptr %31, align 8
  %32 = getelementptr inbounds nuw i8, ptr %1, i64 24
  store i32 0, ptr %32, align 8
  %33 = call ptr @export_stats_to_json(ptr noundef nonnull %0, ptr noundef nonnull %3) #13
  %34 = call i32 @pthread_mutex_unlock(ptr noundef nonnull %20) #13
  %.not46 = icmp eq i32 %34, 0
  br i1 %.not46, label %37, label %35

35:                                               ; preds = %30
  %36 = call ptr @strerror(i32 noundef %34) #13
  call void (ptr, ...) @cli_warnmsg(ptr noundef nonnull @.str.7, i32 noundef %34, ptr noundef %36) #13
  br label %37

37:                                               ; preds = %35, %30
  %38 = getelementptr inbounds nuw i8, ptr %3, i64 16
  %39 = load ptr, ptr %38, align 8
  %.not4753 = icmp eq ptr %39, null
  br i1 %.not4753, label %._crit_edge, label %.lr.ph

.lr.ph:                                           ; preds = %37, %free_sample.exit
  %.054 = phi ptr [ %41, %free_sample.exit ], [ %39, %37 ]
  %40 = getelementptr inbounds nuw i8, ptr %.054, i64 48
  %41 = load ptr, ptr %40, align 8
  %42 = load ptr, ptr %.054, align 8
  %.not.i = icmp eq ptr %42, null
  br i1 %.not.i, label %49, label %.preheader.i

.preheader.i:                                     ; preds = %.lr.ph
  %43 = load ptr, ptr %42, align 8
  %.not1316.i = icmp eq ptr %43, null
  br i1 %.not1316.i, label %._crit_edge.i, label %.lr.ph.i

.lr.ph.i:                                         ; preds = %.preheader.i, %.lr.ph.i
  %44 = phi ptr [ %48, %.lr.ph.i ], [ %43, %.preheader.i ]
  %.017.i = phi i64 [ %45, %.lr.ph.i ], [ 0, %.preheader.i ]
  call void @free(ptr noundef nonnull %44) #13
  %45 = add i64 %.017.i, 1
  %46 = load ptr, ptr %.054, align 8
  %47 = getelementptr inbounds ptr, ptr %46, i64 %45
  %48 = load ptr, ptr %47, align 8
  %.not13.i = icmp eq ptr %48, null
  br i1 %.not13.i, label %._crit_edge.i, label %.lr.ph.i

._crit_edge.i:                                    ; preds = %.lr.ph.i, %.preheader.i
  %.lcssa.i = phi ptr [ %42, %.preheader.i ], [ %46, %.lr.ph.i ]
  call void @free(ptr noundef nonnull %.lcssa.i) #13
  br label %49

49:                                               ; preds = %._crit_edge.i, %.lr.ph
  %50 = getelementptr inbounds nuw i8, ptr %.054, i64 32
  %51 = load ptr, ptr %50, align 8
  %.not14.i = icmp eq ptr %51, null
  br i1 %.not14.i, label %free_sample.exit, label %52

52:                                               ; preds = %49
  %53 = load i64, ptr %51, align 8
  %.not15.i = icmp eq i64 %53, 0
  br i1 %.not15.i, label %free_sample.exit, label %54

54:                                               ; preds = %52
  %55 = getelementptr inbounds nuw i8, ptr %51, i64 8
  %56 = load ptr, ptr %55, align 8
  call void @free(ptr noundef %56) #13
  %57 = load ptr, ptr %50, align 8
  call void @free(ptr noundef %57) #13
  br label %free_sample.exit

free_sample.exit:                                 ; preds = %49, %52, %54
  call void @free(ptr noundef nonnull %.054) #13
  %.not47 = icmp eq ptr %41, null
  br i1 %.not47, label %._crit_edge, label %.lr.ph

._crit_edge:                                      ; preds = %free_sample.exit, %37
  %.not48 = icmp eq ptr %33, null
  br i1 %.not48, label %61, label %58

58:                                               ; preds = %._crit_edge
  %59 = getelementptr inbounds nuw i8, ptr %3, i64 36
  %60 = load i32, ptr %59, align 4
  call void @submit_post(ptr noundef nonnull @.str.8, ptr noundef nonnull @.str.9, ptr noundef nonnull @.str.10, ptr noundef nonnull @.str.11, ptr noundef nonnull %33, i32 noundef %60) #13
  call void @free(ptr noundef nonnull %33) #13
  br label %61

61:                                               ; preds = %58, %._crit_edge
  %62 = load ptr, ptr %3, align 8
  %.not49 = icmp eq ptr %62, null
  br i1 %.not49, label %66, label %63

63:                                               ; preds = %61
  %64 = load ptr, ptr %1, align 8
  %.not50 = icmp eq ptr %64, null
  br i1 %.not50, label %65, label %66

65:                                               ; preds = %63
  call void @free(ptr noundef nonnull %62) #13
  store ptr null, ptr %3, align 8
  br label %66

66:                                               ; preds = %65, %63, %61
  call void (ptr, ...) @cli_dbgmsg(ptr noundef nonnull @.str.12) #13
  br label %67

67:                                               ; preds = %22, %26, %29, %15, %18, %6, %2, %66
  ret void
}